; Function Attrs: mustprogress uwtable
define void @_ZN13PmeGpuProgramC2ERK13DeviceContext(ptr nocapture noundef nonnull writeonly align 8 dereferenceable(8) %0, ptr noundef nonnull align 8 dereferenceable(8) %1) unnamed_addr #0 align 2 personality ptr @__gxx_personality_v0 {
  tail call void @llvm.experimental.noalias.scope.decl(metadata !5)
  %3 = tail call noalias noundef nonnull dereferenceable(304) ptr @_Znwm(i64 noundef 304) #8, !noalias !5
  invoke void @_ZN17PmeGpuProgramImplC1ERK13DeviceContext(ptr noundef nonnull align 8 dereferenceable(304) %3, ptr noundef nonnull align 8 dereferenceable(8) %1)
          to label %_ZSt11make_uniqueI17PmeGpuProgramImplJRK13DeviceContextEENSt8__detail9_MakeUniqIT_E15__single_objectEDpOT0_.exit unwind label %4, !noalias !5

4:                                                ; preds = %2
  %5 = landingpad { ptr, i32 }
          cleanup
  tail call void @_ZdlPv(ptr noundef nonnull %3) #9, !noalias !5
  resume { ptr, i32 } %5

_ZSt11make_uniqueI17PmeGpuProgramImplJRK13DeviceContextEENSt8__detail9_MakeUniqIT_E15__single_objectEDpOT0_.exit: ; preds = %2
  store ptr %3, ptr %0, align 8, !alias.scope !5
  ret void
}